; ModuleID = 'bench/hdf5/original/H5FSint.c.ll'
source_filename = "bench/hdf5/original/H5FSint.c.ll"
target datalayout = "e-m:e-p270:32:32-p271:32:32-p272:64:64-i64:64-i128:128-f80:128-n8:16:32:64-S128"
target triple = "x86_64-pc-linux-gnu"

@.str = private unnamed_addr constant [101 x i8] c"generated/home/dtcxzyw/WorkSpace/Projects/compilers/llvm-opt-benchmark/bench/hdf5/hdf5/src/H5FSint.c\00", align 1
@__func__.H5FS__create_flush_depend = private unnamed_addr constant [26 x i8] c"H5FS__create_flush_depend\00", align 1
@H5E_FSPACE_g = external local_unnamed_addr global i64, align 8
@H5E_CANTDEPEND_g = external local_unnamed_addr global i64, align 8
@.str.1 = private unnamed_addr constant [34 x i8] c"unable to create flush dependency\00", align 1
@__func__.H5FS__destroy_flush_depend = private unnamed_addr constant [27 x i8] c"H5FS__destroy_flush_depend\00", align 1
@H5E_CANTUNDEPEND_g = external local_unnamed_addr global i64, align 8
@.str.2 = private unnamed_addr constant [35 x i8] c"unable to destroy flush dependency\00", align 1

; Function Attrs: nounwind uwtable
define range(i32 -1, 1) i32 @H5FS__create_flush_depend(ptr noundef %0, ptr noundef %1) local_unnamed_addr #0 {
  %3 = tail call i32 @H5AC_create_flush_dependency(ptr noundef %0, ptr noundef %1) #2
  %4 = icmp slt i32 %3, 0
  br i1 %4, label %5, label %9

5:                                                ; preds = %2
  %6 = load i64, ptr @H5E_FSPACE_g, align 8
  %7 = load i64, ptr @H5E_CANTDEPEND_g, align 8
  %8 = tail call i32 (ptr, ptr, i32, i64, i64, ptr, ...) @H5E_printf_stack(ptr noundef nonnull @.str, ptr noundef nonnull @__func__.H5FS__create_flush_depend, i32 noundef 89, i64 noundef %6, i64 noundef %7, ptr noundef nonnull @.str.1) #2
  br label %9

9:                                                ; preds = %2, %5
  %.0 = phi i32 [ -1, %5 ], [ 0, %2 ]
  ret i32 %.0
}

declare i32 @H5AC_create_flush_dependency(ptr noundef, ptr noundef) local_unnamed_addr #1

declare i32 @H5E_printf_stack(ptr noundef, ptr noundef, i32 noundef, i64 noundef, i64 noundef, ptr noundef, ...) local_unnamed_addr #1

; Function Attrs: nounwind uwtable
define range(i32 -1, 1) i32 @H5FS__destroy_flush_depend(ptr noundef %0, ptr noundef %1) local_unnamed_addr #0 {
  %3 = tail call i32 @H5AC_destroy_flush_dependency(ptr noundef %0, ptr noundef %1) #2
  %4 = icmp slt i32 %3, 0
  br i1 %4, label %5, label %9

5:                                                ; preds = %2
  %6 = load i64, ptr @H5E_FSPACE_g, align 8
  %7 = load i64, ptr @H5E_CANTUNDEPEND_g, align 8
  %8 = tail call i32 (ptr, ptr, i32, i64, i64, ptr, ...) @H5E_printf_stack(ptr noundef nonnull @.str, ptr noundef nonnull @__func__.H5FS__destroy_flush_depend, i32 noundef 117, i64 noundef %6, i64 noundef %7, ptr noundef nonnull @.str.2) #2
  br label %9

9:                                                ; preds = %2, %5
  %.0 = phi i32 [ -1, %5 ], [ 0, %2 ]
  ret i32 %.0
}

declare i32 @H5AC_destroy_flush_dependency(ptr noundef, ptr noundef) local_unnamed_addr #1


!llvm.module.flags = !{!0, !1, !2, !3}

!0 = !{i32 1, !"wchar_size", i32 4}
!1 = !{i32 8, !"PIC Level", i32 2}
!2 = !{i32 7, !"uwtable", i32 2}
!3 = !{i32 7, !"frame-pointer", i32 2}
